; ModuleID = 'source-C-CXX/47/1747.c'
source_filename = "source-C-CXX/47/1747.c"
target datalayout = "e-m:e-p270:32:32-p271:32:32-p272:64:64-i64:64-f80:128-n8:16:32:64-S128"
target triple = "x86_64-pc-linux-gnu"

@.str = private unnamed_addr constant [6 x i8] c"%d %d\00", align 1
@.str.1 = private unnamed_addr constant [4 x i8] c"%d \00", align 1
@.str.2 = private unnamed_addr constant [4 x i8] c"%d\0A\00", align 1

; Function Attrs: nofree nounwind sspstrong uwtable
define dso_local i32 @main() local_unnamed_addr #0 {
  %1 = alloca i32, align 4
  %2 = alloca i32, align 4
  %3 = alloca [9 x [9 x i32]], align 16
  %4 = alloca [9 x [9 x i32]], align 16
  %5 = bitcast i32* %1 to i8*
  call void @llvm.lifetime.start.p0i8(i64 4, i8* nonnull %5) #5
  %6 = bitcast i32* %2 to i8*
  call void @llvm.lifetime.start.p0i8(i64 4, i8* nonnull %6) #5
  %7 = call i32 (i8*, ...) @__isoc99_scanf(i8* getelementptr inbounds ([6 x i8], [6 x i8]* @.str, i64 0, i64 0), i32* nonnull %1, i32* nonnull %2)
  %8 = bitcast [9 x [9 x i32]]* %3 to i8*
  call void @llvm.lifetime.start.p0i8(i64 324, i8* nonnull %8) #5
  call void @llvm.memset.p0i8.i64(i8* noundef nonnull align 16 dereferenceable(324) %8, i8 0, i64 324, i1 false)
  %9 = bitcast [9 x [9 x i32]]* %4 to i8*
  call void @llvm.lifetime.start.p0i8(i64 324, i8* nonnull %9) #5
  %10 = load i32, i32* %1, align 4, !tbaa !5
  %11 = getelementptr inbounds [9 x [9 x i32]], [9 x [9 x i32]]* %3, i64 0, i64 4, i64 4
  store i32 %10, i32* %11, align 16, !tbaa !5
  %12 = load i32, i32* %2, align 4, !tbaa !5
  %13 = icmp sgt i32 %12, 0
  br i1 %13, label %14, label %61

14:                                               ; preds = %0, %58
  %15 = phi i32 [ %59, %58 ], [ 0, %0 ]
  call void @llvm.memset.p0i8.i64(i8* noundef nonnull align 16 dereferenceable(324) %9, i8 0, i64 324, i1 false)
  br label %16

16:                                               ; preds = %14, %56
  %17 = phi i64 [ 1, %14 ], [ %18, %56 ]
  %18 = add nuw nsw i64 %17, 1
  %19 = add nsw i64 %17, -1
  br label %20

20:                                               ; preds = %16, %20
  %21 = phi i64 [ 1, %16 ], [ %34, %20 ]
  %22 = getelementptr inbounds [9 x [9 x i32]], [9 x [9 x i32]]* %3, i64 0, i64 %17, i64 %21
  %23 = load i32, i32* %22, align 4, !tbaa !5
  %24 = getelementptr inbounds [9 x [9 x i32]], [9 x [9 x i32]]* %4, i64 0, i64 %17, i64 %21
  %25 = load i32, i32* %24, align 4, !tbaa !5
  %26 = add nsw i32 %25, %23
  store i32 %26, i32* %24, align 4, !tbaa !5
  %27 = add nsw i64 %21, -1
  %28 = getelementptr inbounds [9 x [9 x i32]], [9 x [9 x i32]]* %4, i64 0, i64 %19, i64 %27
  %29 = load i32, i32* %28, align 4, !tbaa !5
  %30 = add nsw i32 %29, %23
  store i32 %30, i32* %28, align 4, !tbaa !5
  %31 = getelementptr inbounds [9 x [9 x i32]], [9 x [9 x i32]]* %4, i64 0, i64 %19, i64 %21
  %32 = load i32, i32* %31, align 4, !tbaa !5
  %33 = add nsw i32 %32, %23
  store i32 %33, i32* %31, align 4, !tbaa !5
  %34 = add nuw nsw i64 %21, 1
  %35 = getelementptr inbounds [9 x [9 x i32]], [9 x [9 x i32]]* %4, i64 0, i64 %19, i64 %34
  %36 = load i32, i32* %35, align 4, !tbaa !5
  %37 = add nsw i32 %36, %23
  store i32 %37, i32* %35, align 4, !tbaa !5
  %38 = getelementptr inbounds [9 x [9 x i32]], [9 x [9 x i32]]* %4, i64 0, i64 %17, i64 %27
  %39 = load i32, i32* %38, align 4, !tbaa !5
  %40 = add nsw i32 %39, %23
  store i32 %40, i32* %38, align 4, !tbaa !5
  %41 = load i32, i32* %24, align 4, !tbaa !5
  %42 = add nsw i32 %41, %23
  store i32 %42, i32* %24, align 4, !tbaa !5
  %43 = getelementptr inbounds [9 x [9 x i32]], [9 x [9 x i32]]* %4, i64 0, i64 %17, i64 %34
  %44 = load i32, i32* %43, align 4, !tbaa !5
  %45 = add nsw i32 %44, %23
  store i32 %45, i32* %43, align 4, !tbaa !5
  %46 = getelementptr inbounds [9 x [9 x i32]], [9 x [9 x i32]]* %4, i64 0, i64 %18, i64 %27
  %47 = load i32, i32* %46, align 4, !tbaa !5
  %48 = add nsw i32 %47, %23
  store i32 %48, i32* %46, align 4, !tbaa !5
  %49 = getelementptr inbounds [9 x [9 x i32]], [9 x [9 x i32]]* %4, i64 0, i64 %18, i64 %21
  %50 = load i32, i32* %49, align 4, !tbaa !5
  %51 = add nsw i32 %50, %23
  store i32 %51, i32* %49, align 4, !tbaa !5
  %52 = getelementptr inbounds [9 x [9 x i32]], [9 x [9 x i32]]* %4, i64 0, i64 %18, i64 %34
  %53 = load i32, i32* %52, align 4, !tbaa !5
  %54 = add nsw i32 %53, %23
  store i32 %54, i32* %52, align 4, !tbaa !5
  %55 = icmp eq i64 %34, 8
  br i1 %55, label %56, label %20, !llvm.loop !9

56:                                               ; preds = %20
  %57 = icmp eq i64 %18, 8
  br i1 %57, label %58, label %16, !llvm.loop !11

58:                                               ; preds = %56
  call void @llvm.memcpy.p0i8.p0i8.i64(i8* noundef nonnull align 16 dereferenceable(324) %8, i8* noundef nonnull align 16 dereferenceable(324) %9, i64 324, i1 false)
  %59 = add nuw nsw i32 %15, 1
  %60 = icmp eq i32 %59, %12
  br i1 %60, label %61, label %14, !llvm.loop !12

61:                                               ; preds = %58, %0
  br label %62

62:                                               ; preds = %61, %62
  %63 = phi i64 [ %91, %62 ], [ 0, %61 ]
  %64 = getelementptr inbounds [9 x [9 x i32]], [9 x [9 x i32]]* %3, i64 0, i64 %63, i64 0
  %65 = load i32, i32* %64, align 4, !tbaa !5
  %66 = call i32 (i8*, ...) @printf(i8* nonnull dereferenceable(1) getelementptr inbounds ([4 x i8], [4 x i8]* @.str.1, i64 0, i64 0), i32 %65)
  %67 = getelementptr inbounds [9 x [9 x i32]], [9 x [9 x i32]]* %3, i64 0, i64 %63, i64 1
  %68 = load i32, i32* %67, align 4, !tbaa !5
  %69 = call i32 (i8*, ...) @printf(i8* nonnull dereferenceable(1) getelementptr inbounds ([4 x i8], [4 x i8]* @.str.1, i64 0, i64 0), i32 %68)
  %70 = getelementptr inbounds [9 x [9 x i32]], [9 x [9 x i32]]* %3, i64 0, i64 %63, i64 2
  %71 = load i32, i32* %70, align 4, !tbaa !5
  %72 = call i32 (i8*, ...) @printf(i8* nonnull dereferenceable(1) getelementptr inbounds ([4 x i8], [4 x i8]* @.str.1, i64 0, i64 0), i32 %71)
  %73 = getelementptr inbounds [9 x [9 x i32]], [9 x [9 x i32]]* %3, i64 0, i64 %63, i64 3
  %74 = load i32, i32* %73, align 4, !tbaa !5
  %75 = call i32 (i8*, ...) @printf(i8* nonnull dereferenceable(1) getelementptr inbounds ([4 x i8], [4 x i8]* @.str.1, i64 0, i64 0), i32 %74)
  %76 = getelementptr inbounds [9 x [9 x i32]], [9 x [9 x i32]]* %3, i64 0, i64 %63, i64 4
  %77 = load i32, i32* %76, align 4, !tbaa !5
  %78 = call i32 (i8*, ...) @printf(i8* nonnull dereferenceable(1) getelementptr inbounds ([4 x i8], [4 x i8]* @.str.1, i64 0, i64 0), i32 %77)
  %79 = getelementptr inbounds [9 x [9 x i32]], [9 x [9 x i32]]* %3, i64 0, i64 %63, i64 5
  %80 = load i32, i32* %79, align 4, !tbaa !5
  %81 = call i32 (i8*, ...) @printf(i8* nonnull dereferenceable(1) getelementptr inbounds ([4 x i8], [4 x i8]* @.str.1, i64 0, i64 0), i32 %80)
  %82 = getelementptr inbounds [9 x [9 x i32]], [9 x [9 x i32]]* %3, i64 0, i64 %63, i64 6
  %83 = load i32, i32* %82, align 4, !tbaa !5
  %84 = call i32 (i8*, ...) @printf(i8* nonnull dereferenceable(1) getelementptr inbounds ([4 x i8], [4 x i8]* @.str.1, i64 0, i64 0), i32 %83)
  %85 = getelementptr inbounds [9 x [9 x i32]], [9 x [9 x i32]]* %3, i64 0, i64 %63, i64 7
  %86 = load i32, i32* %85, align 4, !tbaa !5
  %87 = call i32 (i8*, ...) @printf(i8* nonnull dereferenceable(1) getelementptr inbounds ([4 x i8], [4 x i8]* @.str.1, i64 0, i64 0), i32 %86)
  %88 = getelementptr inbounds [9 x [9 x i32]], [9 x [9 x i32]]* %3, i64 0, i64 %63, i64 8
  %89 = load i32, i32* %88, align 4, !tbaa !5
  %90 = call i32 (i8*, ...) @printf(i8* nonnull dereferenceable(1) getelementptr inbounds ([4 x i8], [4 x i8]* @.str.2, i64 0, i64 0), i32 %89)
  %91 = add nuw nsw i64 %63, 1
  %92 = icmp eq i64 %91, 9
  br i1 %92, label %93, label %62, !llvm.loop !13

93:                                               ; preds = %62
  call void @llvm.lifetime.end.p0i8(i64 324, i8* nonnull %9) #5
  call void @llvm.lifetime.end.p0i8(i64 324, i8* nonnull %8) #5
  call void @llvm.lifetime.end.p0i8(i64 4, i8* nonnull %6) #5
  call void @llvm.lifetime.end.p0i8(i64 4, i8* nonnull %5) #5
  ret i32 0
}

; Function Attrs: argmemonly mustprogress nofree nosync nounwind willreturn
declare void @llvm.lifetime.start.p0i8(i64 immarg, i8* nocapture) #1

; Function Attrs: nofree nounwind
declare noundef i32 @__isoc99_scanf(i8* nocapture noundef readonly, ...) local_unnamed_addr #2

; Function Attrs: argmemonly mustprogress nofree nounwind willreturn writeonly
declare void @llvm.memset.p0i8.i64(i8* nocapture writeonly, i8, i64, i1 immarg) #3

; Function Attrs: argmemonly mustprogress nofree nounwind willreturn
declare void @llvm.memcpy.p0i8.p0i8.i64(i8* noalias nocapture writeonly, i8* noalias nocapture readonly, i64, i1 immarg) #4

; Function Attrs: nofree nounwind
declare noundef i32 @printf(i8* nocapture noundef readonly, ...) local_unnamed_addr #2

; Function Attrs: argmemonly mustprogress nofree nosync nounwind willreturn
declare void @llvm.lifetime.end.p0i8(i64 immarg, i8* nocapture) #1


!llvm.module.flags = !{!0, !1, !2, !3}
!llvm.ident = !{!4}

!0 = !{i32 1, !"wchar_size", i32 4}
!1 = !{i32 7, !"PIC Level", i32 2}
!2 = !{i32 7, !"PIE Level", i32 2}
!3 = !{i32 7, !"uwtable", i32 1}
!4 = !{!"clang version 13.0.0"}
!5 = !{!6, !6, i64 0}
!6 = !{!"int", !7, i64 0}
!7 = !{!"omnipotent char", !8, i64 0}
!8 = !{!"Simple C/C++ TBAA"}
!9 = distinct !{!9, !10}
!10 = !{!"llvm.loop.mustprogress"}
!11 = distinct !{!11, !10}
!12 = distinct !{!12, !10}
!13 = distinct !{!13, !10}
